target datalayout = "e-m:e-p270:32:32-p271:32:32-p272:64:64-i64:64-i128:128-f80:128-n8:16:32:64-S128"
target triple = "x86_64-pc-linux-gnu"

%"class.std::__cxx11::basic_string" = type { %"struct.std::__cxx11::basic_string<char>::_Alloc_hider", i64, %union.anon.11 }
%"struct.std::__cxx11::basic_string<char>::_Alloc_hider" = type { ptr }
%union.anon.11 = type { i64, [8 x i8] }
%"class.std::allocator" = type { i8 }

@.str.16 = private unnamed_addr constant [10 x i8] c"/dev/null\00", align 1
@.str.17 = private unnamed_addr constant [40 x i8] c"Cannot posix_spawn_file_actions_addopen\00", align 1
@.str.24 = private unnamed_addr constant [50 x i8] c"basic_string: construction from null is not valid\00", align 1

; Function Attrs: mustprogress nounwind uwtable
define linkonce_odr hidden noundef i64 @_ZNSt11char_traitsIcE6lengthEPKc(ptr noundef %0) #0 comdat align 2 {
  %2 = alloca ptr, align 8
  store ptr %0, ptr %2, align 8
  %3 = load ptr, ptr %2, align 8
  %4 = call i64 @strlen(ptr noundef %3) #6
  ret i64 %4
}

; Function Attrs: mustprogress nounwind uwtable
define linkonce_odr hidden void @_ZNSt7__cxx1112basic_stringIcSt11char_traitsIcESaIcEEC2IS3_EEPKcRKS3_(ptr noundef nonnull align 8 dereferenceable(32) %0, ptr noundef %1, ptr noundef nonnull align 1 dereferenceable(1) %2) unnamed_addr #0 comdat align 2 {
  %4 = alloca ptr, align 8
  %5 = alloca ptr, align 8
  %6 = alloca ptr, align 8
  %7 = alloca ptr, align 8
  store ptr %0, ptr %4, align 8
  store ptr %1, ptr %5, align 8
  store ptr %2, ptr %6, align 8
  %8 = load ptr, ptr %4, align 8
  %9 = getelementptr inbounds nuw %"class.std::__cxx11::basic_string", ptr %8, i32 0, i32 0
  %10 = call noundef ptr @_ZNSt7__cxx1112basic_stringIcSt11char_traitsIcESaIcEE13_M_local_dataEv(ptr noundef nonnull align 8 dereferenceable(32) %8)
  %11 = load ptr, ptr %6, align 8
  call void @_ZNSt7__cxx1112basic_stringIcSt11char_traitsIcESaIcEE12_Alloc_hiderC1EPcRKS3_(ptr noundef nonnull align 8 dereferenceable(8) %9, ptr noundef %10, ptr noundef nonnull align 1 dereferenceable(1) %11)
  %12 = load ptr, ptr %5, align 8
  %13 = icmp eq ptr %12, null
  br i1 %13, label %14, label %15

14:                                               ; preds = %3
  call void @_ZSt19__throw_logic_errorPKc(ptr noundef @.str.24) #12
  unreachable

15:                                               ; preds = %3
  %16 = load ptr, ptr %5, align 8
  %17 = load ptr, ptr %5, align 8
  %18 = call noundef i64 @_ZNSt11char_traitsIcE6lengthEPKc(ptr noundef %17)
  %19 = getelementptr inbounds i8, ptr %16, i64 %18
  store ptr %19, ptr %7, align 8
  %20 = load ptr, ptr %5, align 8
  %21 = load ptr, ptr %7, align 8
  call void @_ZNSt7__cxx1112basic_stringIcSt11char_traitsIcESaIcEE12_M_constructIPKcEEvT_S8_St20forward_iterator_tag(ptr noundef nonnull align 8 dereferenceable(32) %8, ptr noundef %20, ptr noundef %21)
  ret void
}

; Function Attrs: mustprogress nounwind uwtable
define internal noundef zeroext i1 @_ZL13RedirectIO_PSPKNSt7__cxx1112basic_stringIcSt11char_traitsIcESaIcEEEiPS4_P26posix_spawn_file_actions_t(ptr noundef %0, i32 noundef %1, ptr noundef %2, ptr noundef %3) #0 {
  %5 = alloca i1, align 1
  %6 = alloca ptr, align 8
  %7 = alloca i32, align 4
  %8 = alloca ptr, align 8
  %9 = alloca ptr, align 8
  %10 = alloca ptr, align 8
  %11 = alloca i32, align 4
  %12 = alloca %"class.std::__cxx11::basic_string", align 8
  %13 = alloca %"class.std::allocator", align 1
  store ptr %0, ptr %6, align 8
  store i32 %1, ptr %7, align 4
  store ptr %2, ptr %8, align 8
  store ptr %3, ptr %9, align 8
  %14 = load ptr, ptr %6, align 8
  %15 = icmp ne ptr %14, null
  br i1 %15, label %17, label %16

16:                                               ; preds = %4
  store i1 false, ptr %5, align 1
  br label %39

17:                                               ; preds = %4
  %18 = load ptr, ptr %6, align 8
  %19 = call noundef zeroext i1 @_ZNKSt7__cxx1112basic_stringIcSt11char_traitsIcESaIcEE5emptyEv(ptr noundef nonnull align 8 dereferenceable(32) %18) #6
  br i1 %19, label %20, label %21

20:                                               ; preds = %17
  store ptr @.str.16, ptr %10, align 8
  br label %24

21:                                               ; preds = %17
  %22 = load ptr, ptr %6, align 8
  %23 = call noundef ptr @_ZNKSt7__cxx1112basic_stringIcSt11char_traitsIcESaIcEE5c_strEv(ptr noundef nonnull align 8 dereferenceable(32) %22) #6
  store ptr %23, ptr %10, align 8
  br label %24

24:                                               ; preds = %21, %20
  %25 = load ptr, ptr %9, align 8
  %26 = load i32, ptr %7, align 4
  %27 = load ptr, ptr %10, align 8
  %28 = load i32, ptr %7, align 4
  %29 = icmp eq i32 %28, 0
  %30 = select i1 %29, i32 0, i32 65
  %31 = call i32 @posix_spawn_file_actions_addopen(ptr noundef %25, i32 noundef %26, ptr noundef %27, i32 noundef %30, i32 noundef 438) #6
  store i32 %31, ptr %11, align 4
  %32 = load i32, ptr %11, align 4
  %33 = icmp ne i32 %32, 0
  br i1 %33, label %34, label %38

34:                                               ; preds = %24
  %35 = load ptr, ptr %8, align 8
  call void @_ZNSaIcEC1Ev(ptr noundef nonnull align 1 dereferenceable(1) %13) #6
  call void @_ZNSt7__cxx1112basic_stringIcSt11char_traitsIcESaIcEEC2IS3_EEPKcRKS3_(ptr noundef nonnull align 8 dereferenceable(32) %12, ptr noundef @.str.17, ptr noundef nonnull align 1 dereferenceable(1) %13)
  %36 = load i32, ptr %11, align 4
  %37 = call noundef zeroext i1 @_ZL10MakeErrMsgPNSt7__cxx1112basic_stringIcSt11char_traitsIcESaIcEEERKS4_i(ptr noundef %35, ptr noundef nonnull align 8 dereferenceable(32) %12, i32 noundef %36)
  store i1 %37, ptr %5, align 1
  call void @_ZNSt7__cxx1112basic_stringIcSt11char_traitsIcESaIcEED1Ev(ptr noundef nonnull align 8 dereferenceable(32) %12) #6
  call void @_ZNSaIcED1Ev(ptr noundef nonnull align 1 dereferenceable(1) %13) #6
  br label %39

38:                                               ; preds = %24
  store i1 false, ptr %5, align 1
  br label %39

39:                                               ; preds = %38, %34, %16
  %40 = load i1, ptr %5, align 1
  ret i1 %40
}