; Function Attrs: mustprogress nounwind uwtable
define internal fastcc noundef zeroext i1 @_ZL13RedirectIO_PSPKNSt7__cxx1112basic_stringIcSt11char_traitsIcESaIcEEEiPS4_P26posix_spawn_file_actions_t(ptr noundef %0, i32 noundef %1, ptr noundef %2, ptr noundef %3) unnamed_addr #0 {
  %5 = alloca %"class.std::__cxx11::basic_string", align 8
  %6 = alloca %"class.std::allocator", align 1
  %.not = icmp eq ptr %0, null
  br i1 %.not, label %17, label %7

7:                                                ; preds = %4
  %8 = tail call noundef zeroext i1 @_ZNKSt7__cxx1112basic_stringIcSt11char_traitsIcESaIcEE5emptyEv(ptr noundef nonnull align 8 dereferenceable(32) %0) #21
  br i1 %8, label %11, label %9

9:                                                ; preds = %7
  %10 = tail call noundef ptr @_ZNKSt7__cxx1112basic_stringIcSt11char_traitsIcESaIcEE5c_strEv(ptr noundef nonnull align 8 dereferenceable(32) %0) #21
  br label %11

11:                                               ; preds = %7, %9
  %.010 = phi ptr [ %10, %9 ], [ @.str.16, %7 ]
  %12 = icmp eq i32 %1, 0
  %13 = select i1 %12, i32 0, i32 65
  %14 = tail call i32 @posix_spawn_file_actions_addopen(ptr noundef %3, i32 noundef %1, ptr noundef %.010, i32 noundef %13, i32 noundef 438) #21
  %.not13 = icmp eq i32 %14, 0
  br i1 %.not13, label %17, label %15

15:                                               ; preds = %11
  call void @_ZNSaIcEC1Ev(ptr noundef nonnull align 1 dereferenceable(1) %6) #21
  %16 = call noundef ptr @_ZNSt7__cxx1112basic_stringIcSt11char_traitsIcESaIcEE13_M_local_dataEv(ptr noundef nonnull align 8 dereferenceable(32) %5) #21
  call void @_ZNSt7__cxx1112basic_stringIcSt11char_traitsIcESaIcEE12_Alloc_hiderC1EPcRKS3_(ptr noundef nonnull align 8 dereferenceable(8) %5, ptr noundef %16, ptr noundef nonnull align 1 dereferenceable(1) %6) #21
  call void @_ZNSt7__cxx1112basic_stringIcSt11char_traitsIcESaIcEE12_M_constructIPKcEEvT_S8_St20forward_iterator_tag(ptr noundef nonnull align 8 dereferenceable(32) %5, ptr noundef nonnull @.str.17, ptr noundef nonnull getelementptr inbounds (i8, ptr @.str.17, i64 39))
  call fastcc void @_ZL10MakeErrMsgPNSt7__cxx1112basic_stringIcSt11char_traitsIcESaIcEEERKS4_i(ptr noundef %2, ptr noundef nonnull align 8 dereferenceable(32) %5, i32 noundef %14)
  call void @_ZNSt7__cxx1112basic_stringIcSt11char_traitsIcESaIcEED1Ev(ptr noundef nonnull align 8 dereferenceable(32) %5) #21
  call void @_ZNSaIcED1Ev(ptr noundef nonnull align 1 dereferenceable(1) %6) #21
  br label %17

17:                                               ; preds = %11, %4, %15
  %.0 = phi i1 [ true, %15 ], [ false, %4 ], [ false, %11 ]
  ret i1 %.0
}